target datalayout = "e-m:e-p270:32:32-p271:32:32-p272:64:64-i64:64-i128:128-f80:128-n8:16:32:64-S128"
target triple = "x86_64-pc-linux-gnu"

%struct.GL_ShaderContext = type { ptr, ptr, ptr, ptr, ptr, ptr, ptr, ptr, ptr, ptr, ptr, ptr, ptr, ptr, ptr, ptr, i8, [11 x %struct.GL_ShaderData], [11 x ptr] }
%struct.GL_ShaderData = type { i32, i32, i32 }

; Function Attrs: nounwind uwtable
define internal void @DestroyShaderProgram(ptr noundef %0, ptr noundef %1) #0 {
  %3 = alloca ptr, align 8
  %4 = alloca ptr, align 8
  store ptr %0, ptr %3, align 8
  store ptr %1, ptr %4, align 8
  %5 = load ptr, ptr %3, align 8
  %6 = getelementptr inbounds nuw %struct.GL_ShaderContext, ptr %5, i32 0, i32 5
  %7 = load ptr, ptr %6, align 8
  %8 = load ptr, ptr %4, align 8
  %9 = getelementptr inbounds nuw %struct.GL_ShaderData, ptr %8, i32 0, i32 1
  %10 = load i32, ptr %9, align 4
  call void %7(i32 noundef %10)
  %11 = load ptr, ptr %3, align 8
  %12 = getelementptr inbounds nuw %struct.GL_ShaderContext, ptr %11, i32 0, i32 5
  %13 = load ptr, ptr %12, align 8
  %14 = load ptr, ptr %4, align 8
  %15 = getelementptr inbounds nuw %struct.GL_ShaderData, ptr %14, i32 0, i32 2
  %16 = load i32, ptr %15, align 4
  call void %13(i32 noundef %16)
  %17 = load ptr, ptr %3, align 8
  %18 = getelementptr inbounds nuw %struct.GL_ShaderContext, ptr %17, i32 0, i32 5
  %19 = load ptr, ptr %18, align 8
  %20 = load ptr, ptr %4, align 8
  %21 = getelementptr inbounds nuw %struct.GL_ShaderData, ptr %20, i32 0, i32 0
  %22 = load i32, ptr %21, align 4
  call void %19(i32 noundef %22)
  ret void
}

; Function Attrs: nounwind uwtable
define hidden void @GL_DestroyShaderContext(ptr noundef %0) #0 {
  %2 = alloca ptr, align 8
  %3 = alloca i32, align 4
  store ptr %0, ptr %2, align 8
  call void @llvm.lifetime.start.p0(i64 4, ptr %3) #4
  store i32 0, ptr %3, align 4
  br label %4

4:                                                ; preds = %14, %1
  %5 = load i32, ptr %3, align 4
  %6 = icmp slt i32 %5, 11
  br i1 %6, label %7, label %17

7:                                                ; preds = %4
  %8 = load ptr, ptr %2, align 8
  %9 = load ptr, ptr %2, align 8
  %10 = getelementptr inbounds nuw %struct.GL_ShaderContext, ptr %9, i32 0, i32 17
  %11 = load i32, ptr %3, align 4
  %12 = sext i32 %11 to i64
  %13 = getelementptr inbounds [11 x %struct.GL_ShaderData], ptr %10, i64 0, i64 %12
  call void @DestroyShaderProgram(ptr noundef %8, ptr noundef %13)
  br label %14

14:                                               ; preds = %7
  %15 = load i32, ptr %3, align 4
  %16 = add nsw i32 %15, 1
  store i32 %16, ptr %3, align 4
  br label %4, !llvm.loop !8

17:                                               ; preds = %4
  %18 = load ptr, ptr %2, align 8
  call void @SDL_free_REAL(ptr noundef %18)
  call void @llvm.lifetime.end.p0(i64 4, ptr %3) #4
  ret void
}