; Function Attrs: nounwind uwtable
define hidden void @GL_DestroyShaderContext(ptr noundef %0) local_unnamed_addr #0 {
  %2 = getelementptr inbounds nuw i8, ptr %0, i64 132
  %3 = getelementptr inbounds nuw i8, ptr %0, i64 40
  br label %4

4:                                                ; preds = %1, %4
  %indvars.iv = phi i64 [ 0, %1 ], [ %indvars.iv.next, %4 ]
  %5 = getelementptr inbounds nuw [11 x %struct.GL_ShaderData], ptr %2, i64 0, i64 %indvars.iv
  %6 = load ptr, ptr %3, align 8
  %7 = getelementptr inbounds nuw i8, ptr %5, i64 4
  %8 = load i32, ptr %7, align 4
  tail call void %6(i32 noundef %8) #5
  %9 = load ptr, ptr %3, align 8
  %10 = getelementptr inbounds nuw i8, ptr %5, i64 8
  %11 = load i32, ptr %10, align 4
  tail call void %9(i32 noundef %11) #5
  %12 = load ptr, ptr %3, align 8
  %13 = load i32, ptr %5, align 4
  tail call void %12(i32 noundef %13) #5
  %indvars.iv.next = add nuw nsw i64 %indvars.iv, 1
  %exitcond.not = icmp eq i64 %indvars.iv.next, 11
  br i1 %exitcond.not, label %14, label %4, !llvm.loop !8

14:                                               ; preds = %4
  tail call void @SDL_free_REAL(ptr noundef nonnull %0) #5
  ret void
}